target datalayout = "e-m:e-p270:32:32-p271:32:32-p272:64:64-i64:64-i128:128-f80:128-n8:16:32:64-S128"
target triple = "x86_64-pc-linux-gnu"

%struct.qlog_trace_info_st = type { %struct.quic_conn_id_st, ptr, ptr, ptr, i32, ptr, ptr, i64, ptr }
%struct.quic_conn_id_st = type { i8, [20 x i8] }
%struct.filter_spec = type { ptr, i32, i32, i32 }

@.str.6 = private unnamed_addr constant [33 x i8] c"../openssl/test/quic_qlog_test.c\00", align 1
@.str.7 = private unnamed_addr constant [27 x i8] c"qlog = ossl_qlog_new(&qti)\00", align 1
@.str.38 = private unnamed_addr constant [48 x i8] c"ossl_qlog_set_filter(qlog, filters[idx].filter)\00", align 1
@.str.39 = private unnamed_addr constant [23 x i8] c"filters[idx].expect_ok\00", align 1
@.str.40 = private unnamed_addr constant [56 x i8] c"ossl_qlog_enabled(qlog, filters[idx].expect_event_type)\00", align 1
@.str.41 = private unnamed_addr constant [33 x i8] c"filters[idx].expect_event_enable\00", align 1

; Function Attrs: nounwind uwtable
define internal i32 @test_qlog_filter(i32 noundef %0) #0 {
  %2 = alloca i32, align 4
  %3 = alloca i32, align 4
  %4 = alloca %struct.qlog_trace_info_st, align 8
  %5 = alloca ptr, align 8
  store i32 %0, ptr %2, align 4, !tbaa !4
  call void @llvm.lifetime.start.p0(i64 4, ptr %3) #7
  store i32 0, ptr %3, align 4, !tbaa !4
  call void @llvm.lifetime.start.p0(i64 88, ptr %4) #7
  call void @llvm.memset.p0.i64(ptr align 8 %4, i8 0, i64 88, i1 false)
  call void @llvm.lifetime.start.p0(i64 8, ptr %5) #7
  %6 = getelementptr inbounds nuw %struct.qlog_trace_info_st, ptr %4, i32 0, i32 0
  %7 = getelementptr inbounds nuw %struct.quic_conn_id_st, ptr %6, i32 0, i32 0
  store i8 1, ptr %7, align 8, !tbaa !14
  %8 = getelementptr inbounds nuw %struct.qlog_trace_info_st, ptr %4, i32 0, i32 0
  %9 = getelementptr inbounds nuw %struct.quic_conn_id_st, ptr %8, i32 0, i32 1
  %10 = getelementptr inbounds [20 x i8], ptr %9, i64 0, i64 0
  store i8 85, ptr %10, align 1, !tbaa !17
  %11 = call ptr @ossl_qlog_new(ptr noundef %4)
  store ptr %11, ptr %5, align 8, !tbaa !24
  %12 = call i32 @test_ptr(ptr noundef @.str.6, i32 noundef 225, ptr noundef @.str.7, ptr noundef %11)
  %13 = icmp ne i32 %12, 0
  br i1 %13, label %15, label %14

14:                                               ; preds = %1
  br label %56

15:                                               ; preds = %1
  %16 = load ptr, ptr %5, align 8, !tbaa !24
  %17 = load i32, ptr %2, align 4, !tbaa !4
  %18 = sext i32 %17 to i64
  %19 = getelementptr inbounds [32 x %struct.filter_spec], ptr @filters, i64 0, i64 %18
  %20 = getelementptr inbounds nuw %struct.filter_spec, ptr %19, i32 0, i32 0
  %21 = load ptr, ptr %20, align 8, !tbaa !28
  %22 = call i32 @ossl_qlog_set_filter(ptr noundef %16, ptr noundef %21)
  %23 = load i32, ptr %2, align 4, !tbaa !4
  %24 = sext i32 %23 to i64
  %25 = getelementptr inbounds [32 x %struct.filter_spec], ptr @filters, i64 0, i64 %24
  %26 = getelementptr inbounds nuw %struct.filter_spec, ptr %25, i32 0, i32 1
  %27 = load i32, ptr %26, align 8, !tbaa !30
  %28 = call i32 @test_int_eq(ptr noundef @.str.6, i32 noundef 229, ptr noundef @.str.38, ptr noundef @.str.39, i32 noundef %22, i32 noundef %27)
  %29 = icmp ne i32 %28, 0
  br i1 %29, label %31, label %30

30:                                               ; preds = %15
  br label %56

31:                                               ; preds = %15
  %32 = load i32, ptr %2, align 4, !tbaa !4
  %33 = sext i32 %32 to i64
  %34 = getelementptr inbounds [32 x %struct.filter_spec], ptr @filters, i64 0, i64 %33
  %35 = getelementptr inbounds nuw %struct.filter_spec, ptr %34, i32 0, i32 2
  %36 = load i32, ptr %35, align 4, !tbaa !31
  %37 = icmp ne i32 %36, 0
  br i1 %37, label %38, label %55

38:                                               ; preds = %31
  %39 = load ptr, ptr %5, align 8, !tbaa !24
  %40 = load i32, ptr %2, align 4, !tbaa !4
  %41 = sext i32 %40 to i64
  %42 = getelementptr inbounds [32 x %struct.filter_spec], ptr @filters, i64 0, i64 %41
  %43 = getelementptr inbounds nuw %struct.filter_spec, ptr %42, i32 0, i32 2
  %44 = load i32, ptr %43, align 4, !tbaa !31
  %45 = call i32 @ossl_qlog_enabled(ptr noundef %39, i32 noundef %44)
  %46 = load i32, ptr %2, align 4, !tbaa !4
  %47 = sext i32 %46 to i64
  %48 = getelementptr inbounds [32 x %struct.filter_spec], ptr @filters, i64 0, i64 %47
  %49 = getelementptr inbounds nuw %struct.filter_spec, ptr %48, i32 0, i32 3
  %50 = load i32, ptr %49, align 8, !tbaa !32
  %51 = call i32 @test_int_eq(ptr noundef @.str.6, i32 noundef 234, ptr noundef @.str.40, ptr noundef @.str.41, i32 noundef %45, i32 noundef %50)
  %52 = icmp ne i32 %51, 0
  br i1 %52, label %54, label %53

53:                                               ; preds = %38
  br label %56

54:                                               ; preds = %38
  br label %55

55:                                               ; preds = %54, %31
  store i32 1, ptr %3, align 4, !tbaa !4
  br label %56

56:                                               ; preds = %55, %53, %30, %14
  %57 = load ptr, ptr %5, align 8, !tbaa !24
  call void @ossl_qlog_free(ptr noundef %57)
  %58 = load i32, ptr %3, align 4, !tbaa !4
  call void @llvm.lifetime.end.p0(i64 8, ptr %5) #7
  call void @llvm.lifetime.end.p0(i64 88, ptr %4) #7
  call void @llvm.lifetime.end.p0(i64 4, ptr %3) #7
  ret i32 %58
}