; Function Attrs: nounwind uwtable
define internal range(i32 0, 2) i32 @test_qlog_filter(i32 noundef %0) #0 {
  %2 = alloca %struct.qlog_trace_info_st, align 8
  call void @llvm.lifetime.start.p0(i64 88, ptr nonnull %2) #6
  call void @llvm.memset.p0.i64(ptr noundef nonnull align 8 dereferenceable(88) %2, i8 0, i64 88, i1 false)
  store i8 1, ptr %2, align 8, !tbaa !11
  %3 = getelementptr inbounds nuw i8, ptr %2, i64 1
  store i8 85, ptr %3, align 1, !tbaa !15
  %4 = call ptr @ossl_qlog_new(ptr noundef nonnull %2) #6
  %5 = call i32 @test_ptr(ptr noundef nonnull @.str.6, i32 noundef 225, ptr noundef nonnull @.str.7, ptr noundef %4) #6
  %.not = icmp eq i32 %5, 0
  br i1 %.not, label %23, label %6

6:                                                ; preds = %1
  %7 = sext i32 %0 to i64
  %8 = getelementptr inbounds [32 x %struct.filter_spec], ptr @filters, i64 0, i64 %7
  %9 = load ptr, ptr %8, align 8, !tbaa !22
  %10 = call i32 @ossl_qlog_set_filter(ptr noundef %4, ptr noundef %9) #6
  %11 = getelementptr inbounds nuw i8, ptr %8, i64 8
  %12 = load i32, ptr %11, align 8, !tbaa !24
  %13 = call i32 @test_int_eq(ptr noundef nonnull @.str.6, i32 noundef 229, ptr noundef nonnull @.str.38, ptr noundef nonnull @.str.39, i32 noundef %10, i32 noundef %12) #6
  %.not9 = icmp eq i32 %13, 0
  br i1 %.not9, label %23, label %14

14:                                               ; preds = %6
  %15 = getelementptr inbounds nuw i8, ptr %8, i64 12
  %16 = load i32, ptr %15, align 4, !tbaa !25
  %.not10 = icmp eq i32 %16, 0
  br i1 %.not10, label %22, label %17

17:                                               ; preds = %14
  %18 = call i32 @ossl_qlog_enabled(ptr noundef %4, i32 noundef %16) #6
  %19 = getelementptr inbounds nuw i8, ptr %8, i64 16
  %20 = load i32, ptr %19, align 8, !tbaa !26
  %21 = call i32 @test_int_eq(ptr noundef nonnull @.str.6, i32 noundef 234, ptr noundef nonnull @.str.40, ptr noundef nonnull @.str.41, i32 noundef %18, i32 noundef %20) #6
  %.not11 = icmp eq i32 %21, 0
  br i1 %.not11, label %23, label %22

22:                                               ; preds = %17, %14
  br label %23

23:                                               ; preds = %17, %6, %1, %22
  %.0 = phi i32 [ 1, %22 ], [ 0, %17 ], [ 0, %6 ], [ 0, %1 ]
  call void @ossl_qlog_free(ptr noundef %4) #6
  call void @llvm.lifetime.end.p0(i64 88, ptr nonnull %2) #6
  ret i32 %.0
}